target datalayout = "e-m:e-p270:32:32-p271:32:32-p272:64:64-i64:64-i128:128-f80:128-n8:16:32:64-S128"
target triple = "x86_64-pc-linux-gnu"

%struct.Profiler = type { ptr, i32, %"class.std::thread", %"struct.std::atomic", %"struct.std::atomic.0", %"struct.std::atomic.0", i64, %"class.std::__cxx11::basic_string", %"class.Luau::DenseHashMap", [16 x i64] }
%"class.std::thread" = type { %"class.std::thread::id" }
%"class.std::thread::id" = type { i64 }
%"struct.std::atomic" = type { %"struct.std::__atomic_base" }
%"struct.std::__atomic_base" = type { i8 }
%"struct.std::atomic.0" = type { %"struct.std::__atomic_base.1" }
%"struct.std::__atomic_base.1" = type { i64 }
%"class.std::__cxx11::basic_string" = type { %"struct.std::__cxx11::basic_string<char>::_Alloc_hider", i64, %union.anon }
%"struct.std::__cxx11::basic_string<char>::_Alloc_hider" = type { ptr }
%union.anon = type { i64, [8 x i8] }
%"class.Luau::DenseHashMap" = type { %"class.Luau::detail::DenseHashTable" }
%"class.Luau::detail::DenseHashTable" = type <{ ptr, i64, i64, %"class.std::__cxx11::basic_string", [8 x i8] }>
%struct.lua_Callbacks = type { ptr, ptr, ptr, ptr, ptr, ptr, ptr, ptr, ptr, ptr }

@gProfiler = dso_local global %struct.Profiler zeroinitializer, align 8

; Function Attrs: mustprogress nounwind uwtable
define linkonce_odr dso_local noundef i32 @_ZStanSt12memory_orderSt23__memory_order_modifier(i32 noundef %0, i32 noundef %1) #6 comdat {
  %3 = alloca i32, align 4
  %4 = alloca i32, align 4
  store i32 %0, ptr %3, align 4, !tbaa !76
  store i32 %1, ptr %4, align 4, !tbaa !113
  %5 = load i32, ptr %3, align 4, !tbaa !76
  %6 = load i32, ptr %4, align 4, !tbaa !113
  %7 = and i32 %5, %6
  ret i32 %7
}

; Function Attrs: noinline noreturn nounwind uwtable
define linkonce_odr hidden void @__clang_call_terminate(ptr noundef %0) #10 comdat {
  %2 = call ptr @__cxa_begin_catch(ptr %0) #3
  call void @_ZSt9terminatev() #20
  unreachable
}

; Function Attrs: inlinehint mustprogress nounwind uwtable
define internal noundef i32 @_ZL15__gthread_yieldv() #2 {
  %1 = call i32 @sched_yield() #3
  ret i32 %1
}

; Function Attrs: alwaysinline mustprogress nounwind uwtable
define linkonce_odr dso_local noundef i64 @_ZNSt13__atomic_baseImE9fetch_addEmSt12memory_order(ptr noundef nonnull align 8 dereferenceable(8) %0, i64 noundef %1, i32 noundef %2) #9 comdat align 2 {
  %4 = alloca ptr, align 8
  %5 = alloca i64, align 8
  %6 = alloca i32, align 4
  %7 = alloca i64, align 8
  %8 = alloca i64, align 8
  store ptr %0, ptr %4, align 8, !tbaa !74
  store i64 %1, ptr %5, align 8, !tbaa !31
  store i32 %2, ptr %6, align 4, !tbaa !76
  %9 = load ptr, ptr %4, align 8
  %10 = getelementptr inbounds nuw %"struct.std::__atomic_base.1", ptr %9, i32 0, i32 0
  %11 = load i32, ptr %6, align 4, !tbaa !76
  %12 = load i64, ptr %5, align 8, !tbaa !31
  store i64 %12, ptr %7, align 8, !tbaa !31
  switch i32 %11, label %13 [
    i32 1, label %16
    i32 2, label %16
    i32 3, label %19
    i32 4, label %22
    i32 5, label %25
  ]

13:                                               ; preds = %3
  %14 = load i64, ptr %7, align 8
  %15 = atomicrmw add ptr %10, i64 %14 monotonic, align 8
  store i64 %15, ptr %8, align 8
  br label %28

16:                                               ; preds = %3, %3
  %17 = load i64, ptr %7, align 8
  %18 = atomicrmw add ptr %10, i64 %17 acquire, align 8
  store i64 %18, ptr %8, align 8
  br label %28

19:                                               ; preds = %3
  %20 = load i64, ptr %7, align 8
  %21 = atomicrmw add ptr %10, i64 %20 release, align 8
  store i64 %21, ptr %8, align 8
  br label %28

22:                                               ; preds = %3
  %23 = load i64, ptr %7, align 8
  %24 = atomicrmw add ptr %10, i64 %23 acq_rel, align 8
  store i64 %24, ptr %8, align 8
  br label %28

25:                                               ; preds = %3
  %26 = load i64, ptr %7, align 8
  %27 = atomicrmw add ptr %10, i64 %26 seq_cst, align 8
  store i64 %27, ptr %8, align 8
  br label %28

28:                                               ; preds = %25, %22, %19, %16, %13
  %29 = load i64, ptr %8, align 8, !tbaa !31
  ret i64 %29
}

; Function Attrs: alwaysinline mustprogress nounwind uwtable
define linkonce_odr dso_local noundef zeroext i1 @_ZNKSt13__atomic_baseIbE4loadESt12memory_order(ptr noundef nonnull align 1 dereferenceable(1) %0, i32 noundef %1) #9 comdat align 2 {
  %3 = alloca ptr, align 8
  %4 = alloca i32, align 4
  %5 = alloca i32, align 4
  %6 = alloca i8, align 1
  store ptr %0, ptr %3, align 8, !tbaa !87
  store i32 %1, ptr %4, align 4, !tbaa !76
  %7 = load ptr, ptr %3, align 8
  call void @llvm.lifetime.start.p0(i64 4, ptr %5) #3
  %8 = load i32, ptr %4, align 4, !tbaa !76
  %9 = call noundef i32 @_ZStanSt12memory_orderSt23__memory_order_modifier(i32 noundef %8, i32 noundef 65535)
  store i32 %9, ptr %5, align 4, !tbaa !76
  br label %10

10:                                               ; preds = %2
  br label %11

11:                                               ; preds = %10
  br label %12

12:                                               ; preds = %11
  br label %13

13:                                               ; preds = %12
  br label %14

14:                                               ; preds = %13
  br label %15

15:                                               ; preds = %14
  %16 = getelementptr inbounds nuw %"struct.std::__atomic_base", ptr %7, i32 0, i32 0
  %17 = load i32, ptr %4, align 4, !tbaa !76
  switch i32 %17, label %18 [
    i32 1, label %20
    i32 2, label %20
    i32 5, label %22
  ]

18:                                               ; preds = %15
  %19 = load atomic i8, ptr %16 monotonic, align 1
  store i8 %19, ptr %6, align 1
  br label %24

20:                                               ; preds = %15, %15
  %21 = load atomic i8, ptr %16 acquire, align 1
  store i8 %21, ptr %6, align 1
  br label %24

22:                                               ; preds = %15
  %23 = load atomic i8, ptr %16 seq_cst, align 1
  store i8 %23, ptr %6, align 1
  br label %24

24:                                               ; preds = %22, %20, %18
  %25 = load i8, ptr %6, align 1, !tbaa !37, !range !38, !noundef !39
  %26 = trunc i8 %25 to i1
  call void @llvm.lifetime.end.p0(i64 4, ptr %5) #3
  ret i1 %26
}

; Function Attrs: inlinehint mustprogress nounwind uwtable
define linkonce_odr dso_local void @_ZNSt11this_thread5yieldEv() #2 comdat personality ptr @__gxx_personality_v0 {
  %1 = invoke noundef i32 @_ZL15__gthread_yieldv()
          to label %2 unwind label %3

2:                                                ; preds = %0
  ret void

3:                                                ; preds = %0
  %4 = landingpad { ptr, i32 }
          catch ptr null
  %5 = extractvalue { ptr, i32 } %4, 0
  call void @__clang_call_terminate(ptr %5) #20
  unreachable
}

; Function Attrs: mustprogress nounwind uwtable
define linkonce_odr dso_local noundef i64 @_ZNSt13__atomic_baseImEppEi(ptr noundef nonnull align 8 dereferenceable(8) %0, i32 noundef %1) #6 comdat align 2 {
  %3 = alloca ptr, align 8
  %4 = alloca i32, align 4
  store ptr %0, ptr %3, align 8, !tbaa !74
  store i32 %1, ptr %4, align 4, !tbaa !34
  %5 = load ptr, ptr %3, align 8
  %6 = call noundef i64 @_ZNSt13__atomic_baseImE9fetch_addEmSt12memory_order(ptr noundef nonnull align 8 dereferenceable(8) %5, i64 noundef 1, i32 noundef 5) #3
  ret i64 %6
}

; Function Attrs: mustprogress nounwind uwtable
define linkonce_odr dso_local noundef i64 @_ZNSt13__atomic_baseImEpLEm(ptr noundef nonnull align 8 dereferenceable(8) %0, i64 noundef %1) #6 comdat align 2 {
  %3 = alloca ptr, align 8
  %4 = alloca i64, align 8
  %5 = alloca i64, align 8
  %6 = alloca i64, align 8
  store ptr %0, ptr %3, align 8, !tbaa !74
  store i64 %1, ptr %4, align 8, !tbaa !31
  %7 = load ptr, ptr %3, align 8
  %8 = getelementptr inbounds nuw %"struct.std::__atomic_base.1", ptr %7, i32 0, i32 0
  %9 = load i64, ptr %4, align 8, !tbaa !31
  store i64 %9, ptr %5, align 8, !tbaa !31
  %10 = load i64, ptr %5, align 8
  %11 = atomicrmw add ptr %8, i64 %10 seq_cst, align 8
  %12 = add i64 %11, %10
  store i64 %12, ptr %6, align 8
  %13 = load i64, ptr %6, align 8, !tbaa !31
  ret i64 %13
}

; Function Attrs: mustprogress nounwind uwtable
define linkonce_odr dso_local noundef zeroext i1 @_ZNKSt6atomicIbEcvbEv(ptr noundef nonnull align 1 dereferenceable(1) %0) #6 comdat align 2 {
  %2 = alloca ptr, align 8
  store ptr %0, ptr %2, align 8, !tbaa !35
  %3 = load ptr, ptr %2, align 8
  %4 = getelementptr inbounds nuw %"struct.std::atomic", ptr %3, i32 0, i32 0
  %5 = call noundef zeroext i1 @_ZNKSt13__atomic_baseIbE4loadESt12memory_order(ptr noundef nonnull align 1 dereferenceable(1) %4, i32 noundef 5) #3
  ret i1 %5
}

; Function Attrs: mustprogress uwtable
define internal void @_ZL12profilerLoopv() #4 {
  %1 = alloca double, align 8
  %2 = alloca double, align 8
  %3 = alloca i64, align 8
  call void @llvm.lifetime.start.p0(i64 8, ptr %1) #3
  %4 = call noundef double @_Z9lua_clockv()
  store double %4, ptr %1, align 8, !tbaa !40
  br label %5

5:                                                ; preds = %33, %0
  %6 = call noundef zeroext i1 @_ZNKSt6atomicIbEcvbEv(ptr noundef nonnull align 1 dereferenceable(1) getelementptr inbounds nuw (%struct.Profiler, ptr @gProfiler, i32 0, i32 3)) #3
  %7 = xor i1 %6, true
  br i1 %7, label %8, label %34

8:                                                ; preds = %5
  call void @llvm.lifetime.start.p0(i64 8, ptr %2) #3
  %9 = call noundef double @_Z9lua_clockv()
  store double %9, ptr %2, align 8, !tbaa !40
  %10 = load double, ptr %2, align 8, !tbaa !40
  %11 = load double, ptr %1, align 8, !tbaa !40
  %12 = fsub double %10, %11
  %13 = load i32, ptr getelementptr inbounds nuw (%struct.Profiler, ptr @gProfiler, i32 0, i32 1), align 8, !tbaa !29
  %14 = sitofp i32 %13 to double
  %15 = fdiv double 1.000000e+00, %14
  %16 = fcmp oge double %12, %15
  br i1 %16, label %17, label %32

17:                                               ; preds = %8
  call void @llvm.lifetime.start.p0(i64 8, ptr %3) #3
  %18 = load double, ptr %2, align 8, !tbaa !40
  %19 = load double, ptr %1, align 8, !tbaa !40
  %20 = fsub double %18, %19
  %21 = fmul double %20, 1.000000e+06
  %22 = fptosi double %21 to i64
  store i64 %22, ptr %3, align 8, !tbaa !31
  %23 = load i64, ptr %3, align 8, !tbaa !31
  %24 = call noundef i64 @_ZNSt13__atomic_baseImEpLEm(ptr noundef nonnull align 8 dereferenceable(8) getelementptr inbounds nuw (%struct.Profiler, ptr @gProfiler, i32 0, i32 4), i64 noundef %23) #3
  %25 = call noundef i64 @_ZNSt13__atomic_baseImEppEi(ptr noundef nonnull align 8 dereferenceable(8) getelementptr inbounds nuw (%struct.Profiler, ptr @gProfiler, i32 0, i32 5), i32 noundef 0) #3
  %26 = load ptr, ptr @gProfiler, align 8, !tbaa !9
  %27 = getelementptr inbounds nuw %struct.lua_Callbacks, ptr %26, i32 0, i32 1
  store ptr @_ZL15profilerTriggerP9lua_Statei, ptr %27, align 8, !tbaa !42
  %28 = load i64, ptr %3, align 8, !tbaa !31
  %29 = sitofp i64 %28 to double
  %30 = load double, ptr %1, align 8, !tbaa !40
  %31 = call double @llvm.fmuladd.f64(double %29, double 0x3EB0C6F7A0B5ED8D, double %30)
  store double %31, ptr %1, align 8, !tbaa !40
  call void @llvm.lifetime.end.p0(i64 8, ptr %3) #3
  br label %33

32:                                               ; preds = %8
  call void @_ZNSt11this_thread5yieldEv() #3
  br label %33

33:                                               ; preds = %32, %17
  call void @llvm.lifetime.end.p0(i64 8, ptr %2) #3
  br label %5, !llvm.loop !44

34:                                               ; preds = %5
  call void @llvm.lifetime.end.p0(i64 8, ptr %1) #3
  ret void
}