; Function Attrs: mustprogress uwtable
define internal void @_ZL12profilerLoopv() #2 personality ptr @__gxx_personality_v0 {
  %1 = tail call noundef double @_Z9lua_clockv()
  %2 = load atomic i8, ptr getelementptr inbounds nuw (i8, ptr @gProfiler, i64 24) seq_cst, align 8
  %3 = trunc i8 %2 to i1
  br i1 %3, label %._crit_edge, label %.lr.ph

.lr.ph:                                           ; preds = %0, %21
  %.07 = phi double [ %.1, %21 ], [ %1, %0 ]
  %4 = tail call noundef double @_Z9lua_clockv()
  %5 = fsub double %4, %.07
  %6 = load i32, ptr getelementptr inbounds nuw (i8, ptr @gProfiler, i64 8), align 8, !tbaa !23
  %7 = sitofp i32 %6 to double
  %8 = fdiv double 1.000000e+00, %7
  %9 = fcmp ult double %5, %8
  br i1 %9, label %19, label %10

10:                                               ; preds = %.lr.ph
  %11 = fmul double %5, 1.000000e+06
  %12 = fptosi double %11 to i64
  %13 = atomicrmw add ptr getelementptr inbounds nuw (i8, ptr @gProfiler, i64 32), i64 %12 seq_cst, align 8
  %14 = atomicrmw add ptr getelementptr inbounds nuw (i8, ptr @gProfiler, i64 40), i64 1 seq_cst, align 8
  %15 = load ptr, ptr @gProfiler, align 8, !tbaa !35
  %16 = getelementptr inbounds nuw i8, ptr %15, i64 8
  store ptr @_ZL15profilerTriggerP9lua_Statei, ptr %16, align 8, !tbaa !43
  %17 = sitofp i64 %12 to double
  %18 = tail call double @llvm.fmuladd.f64(double %17, double 0x3EB0C6F7A0B5ED8D, double %.07)
  br label %21

19:                                               ; preds = %.lr.ph
  %20 = tail call noundef i32 @sched_yield() #22
  br label %21

21:                                               ; preds = %19, %10
  %.1 = phi double [ %18, %10 ], [ %.07, %19 ]
  %22 = load atomic i8, ptr getelementptr inbounds nuw (i8, ptr @gProfiler, i64 24) seq_cst, align 8
  %23 = trunc i8 %22 to i1
  br i1 %23, label %._crit_edge, label %.lr.ph, !llvm.loop !45

._crit_edge:                                      ; preds = %21, %0
  ret void
}